; Function Attrs: mustprogress nounwind uwtable
define hidden noundef ptr @_ZNK12ObjectSample6objectEv(ptr nocapture noundef nonnull readonly align 8 dereferenceable(117) %0) local_unnamed_addr #0 align 2 {
  %2 = getelementptr inbounds i8, ptr %0, i64 40
  %3 = load ptr, ptr %2, align 8
  %4 = load ptr, ptr @_ZN14AccessInternal15RuntimeDispatchILm593988EP7oopDescLNS_11BarrierTypeE2EE10_load_funcE, align 8
  %5 = tail call noundef ptr %4(ptr noundef %3) #8
  %6 = icmp eq ptr %5, null
  br i1 %6, label %11, label %7

7:                                                ; preds = %1
  %8 = load ptr, ptr %2, align 8
  %9 = load ptr, ptr @_ZN14AccessInternal15RuntimeDispatchILm598084EP7oopDescLNS_11BarrierTypeE2EE10_load_funcE, align 8
  %10 = tail call noundef ptr %9(ptr noundef %8) #8
  br label %11

11:                                               ; preds = %1, %7
  %12 = phi ptr [ %10, %7 ], [ null, %1 ]
  ret ptr %12
}